target datalayout = "e-m:e-p270:32:32-p271:32:32-p272:64:64-i64:64-i128:128-f80:128-n8:16:32:64-S128"
target triple = "x86_64-pc-linux-gnu"

%"class.absl::lts_20240722::AnyInvocable" = type { %"class.absl::lts_20240722::internal_any_invocable::Impl" }
%"class.absl::lts_20240722::internal_any_invocable::Impl" = type { %"class.absl::lts_20240722::internal_any_invocable::CoreImpl" }
%"class.absl::lts_20240722::internal_any_invocable::CoreImpl" = type { %"union.absl::lts_20240722::internal_any_invocable::TypeErasedState", ptr, ptr }
%"union.absl::lts_20240722::internal_any_invocable::TypeErasedState" = type { %struct.anon }
%struct.anon = type { ptr, i64 }
%"class.std::chrono::duration" = type { i64 }
%"struct.grpc_event_engine::experimental::EventEngine::TaskHandle" = type { [2 x i64] }
%class.anon.60 = type { ptr }

; Function Attrs: mustprogress nounwind uwtable
define internal void @"_ZN4absl12lts_2024072222internal_any_invocable8CoreImplILb0EvJEE22InitializeLocalManagerIZN17grpc_event_engine12experimental18ThreadyEventEngine8RunAfterENSt6chrono8durationIlSt5ratioILl1ELl1000000000EEEEPNS6_11EventEngine7ClosureEE3$_0vEEvv"(ptr noundef nonnull align 16 dereferenceable(32) %0) #6 align 2 {
  %2 = alloca ptr, align 8
  store ptr %0, ptr %2, align 8, !tbaa !27
  %3 = load ptr, ptr %2, align 8
  %4 = getelementptr inbounds nuw %"class.absl::lts_20240722::internal_any_invocable::CoreImpl", ptr %3, i32 0, i32 1
  store ptr @_ZN4absl12lts_2024072222internal_any_invocable19LocalManagerTrivialENS1_14FunctionToCallEPNS1_15TypeErasedStateES4_, ptr %4, align 16, !tbaa !29
  ret void
}

; Function Attrs: mustprogress uwtable
define internal void @"_ZN4absl12lts_2024072222internal_any_invocable8CoreImplILb0EvJEE17InitializeStorageIRZN17grpc_event_engine12experimental18ThreadyEventEngine8RunAfterENSt6chrono8durationIlSt5ratioILl1ELl1000000000EEEEPNS6_11EventEngine7ClosureEE3$_0JSG_EvEEvDpOT0_"(ptr noundef nonnull align 16 dereferenceable(32) %0, ptr noundef nonnull align 8 dereferenceable(8) %1) #4 align 2 {
  %3 = alloca ptr, align 8
  %4 = alloca ptr, align 8
  store ptr %0, ptr %3, align 8, !tbaa !27
  store ptr %1, ptr %4, align 8, !tbaa !68
  %5 = load ptr, ptr %3, align 8
  %6 = getelementptr inbounds nuw %"class.absl::lts_20240722::internal_any_invocable::CoreImpl", ptr %5, i32 0, i32 0
  %7 = load ptr, ptr %4, align 8, !tbaa !68
  call void @llvm.memcpy.p0.p0.i64(ptr align 8 %6, ptr align 8 %7, i64 8, i1 false), !tbaa.struct !440
  %8 = getelementptr inbounds nuw %"class.absl::lts_20240722::internal_any_invocable::CoreImpl", ptr %5, i32 0, i32 2
  store ptr @"_ZN4absl12lts_2024072222internal_any_invocable12LocalInvokerILb0EvRZN17grpc_event_engine12experimental18ThreadyEventEngine8RunAfterENSt6chrono8durationIlSt5ratioILl1ELl1000000000EEEEPNS4_11EventEngine7ClosureEE3$_0JEEET0_PNS1_15TypeErasedStateEDpNS1_18ForwardedParameterIT2_E4typeE", ptr %8, align 8, !tbaa !168
  call void @"_ZN4absl12lts_2024072222internal_any_invocable8CoreImplILb0EvJEE22InitializeLocalManagerIZN17grpc_event_engine12experimental18ThreadyEventEngine8RunAfterENSt6chrono8durationIlSt5ratioILl1ELl1000000000EEEEPNS6_11EventEngine7ClosureEE3$_0vEEvv"(ptr noundef nonnull align 16 dereferenceable(32) %5)
  ret void
}

; Function Attrs: mustprogress uwtable
define internal void @"_ZN4absl12lts_2024072222internal_any_invocable8CoreImplILb0EvJEE10InitializeILNS3_10TargetTypeE3ERZN17grpc_event_engine12experimental18ThreadyEventEngine8RunAfterENSt6chrono8durationIlSt5ratioILl1ELl1000000000EEEEPNS7_11EventEngine7ClosureEE3$_0SH_vEEvOT1_"(ptr noundef nonnull align 16 dereferenceable(32) %0, ptr noundef nonnull align 8 dereferenceable(8) %1) #4 align 2 {
  %3 = alloca ptr, align 8
  %4 = alloca ptr, align 8
  store ptr %0, ptr %3, align 8, !tbaa !27
  store ptr %1, ptr %4, align 8, !tbaa !68
  %5 = load ptr, ptr %3, align 8
  %6 = load ptr, ptr %4, align 8, !tbaa !68
  call void @"_ZN4absl12lts_2024072222internal_any_invocable8CoreImplILb0EvJEE17InitializeStorageIRZN17grpc_event_engine12experimental18ThreadyEventEngine8RunAfterENSt6chrono8durationIlSt5ratioILl1ELl1000000000EEEEPNS6_11EventEngine7ClosureEE3$_0JSG_EvEEvDpOT0_"(ptr noundef nonnull align 16 dereferenceable(32) %5, ptr noundef nonnull align 8 dereferenceable(8) %6)
  ret void
}

; Function Attrs: mustprogress uwtable
define internal void @"_ZN4absl12lts_2024072222internal_any_invocable8CoreImplILb0EvJEEC2IRZN17grpc_event_engine12experimental18ThreadyEventEngine8RunAfterENSt6chrono8durationIlSt5ratioILl1ELl1000000000EEEEPNS6_11EventEngine7ClosureEE3$_0SG_EENS1_24TypedConversionConstructIT_EEOT0_"(ptr noundef nonnull align 16 dereferenceable(32) %0, ptr noundef nonnull align 8 dereferenceable(8) %1) unnamed_addr #4 align 2 {
  %3 = alloca ptr, align 8
  %4 = alloca ptr, align 8
  %5 = alloca i32, align 4
  store ptr %0, ptr %3, align 8, !tbaa !27
  store ptr %1, ptr %4, align 8, !tbaa !68
  %6 = load ptr, ptr %3, align 8
  call void @llvm.lifetime.start.p0(i64 4, ptr %5) #3
  store i32 3, ptr %5, align 4, !tbaa !369
  %7 = load ptr, ptr %4, align 8, !tbaa !68
  call void @"_ZN4absl12lts_2024072222internal_any_invocable8CoreImplILb0EvJEE10InitializeILNS3_10TargetTypeE3ERZN17grpc_event_engine12experimental18ThreadyEventEngine8RunAfterENSt6chrono8durationIlSt5ratioILl1ELl1000000000EEEEPNS7_11EventEngine7ClosureEE3$_0SH_vEEvOT1_"(ptr noundef nonnull align 16 dereferenceable(32) %6, ptr noundef nonnull align 8 dereferenceable(8) %7)
  call void @llvm.lifetime.end.p0(i64 4, ptr %5) #3
  ret void
}

; Function Attrs: mustprogress uwtable
define internal void @"_ZN4absl12lts_2024072222internal_any_invocable4ImplIFvvEEC2IZN17grpc_event_engine12experimental18ThreadyEventEngine8RunAfterENSt6chrono8durationIlSt5ratioILl1ELl1000000000EEEEPNS7_11EventEngine7ClosureEE3$_0EENS1_19ConversionConstructEOT_"(ptr noundef nonnull align 16 dereferenceable(32) %0, ptr noundef nonnull align 8 dereferenceable(8) %1) unnamed_addr #4 align 2 {
  %3 = alloca ptr, align 8
  %4 = alloca ptr, align 8
  store ptr %0, ptr %3, align 8, !tbaa !166
  store ptr %1, ptr %4, align 8, !tbaa !68
  %5 = load ptr, ptr %3, align 8
  %6 = load ptr, ptr %4, align 8, !tbaa !68
  call void @"_ZN4absl12lts_2024072222internal_any_invocable8CoreImplILb0EvJEEC2IRZN17grpc_event_engine12experimental18ThreadyEventEngine8RunAfterENSt6chrono8durationIlSt5ratioILl1ELl1000000000EEEEPNS6_11EventEngine7ClosureEE3$_0SG_EENS1_24TypedConversionConstructIT_EEOT0_"(ptr noundef nonnull align 16 dereferenceable(32) %5, ptr noundef nonnull align 8 dereferenceable(8) %6)
  ret void
}

; Function Attrs: mustprogress nounwind uwtable
define linkonce_odr void @_ZN4absl12lts_2024072222internal_any_invocable8CoreImplILb0EvJEED2Ev(ptr noundef nonnull align 16 dereferenceable(32) %0) unnamed_addr #6 comdat align 2 {
  %2 = alloca ptr, align 8
  store ptr %0, ptr %2, align 8, !tbaa !27
  %3 = load ptr, ptr %2, align 8
  %4 = getelementptr inbounds nuw %"class.absl::lts_20240722::internal_any_invocable::CoreImpl", ptr %3, i32 0, i32 1
  %5 = load ptr, ptr %4, align 16, !tbaa !29
  %6 = getelementptr inbounds nuw %"class.absl::lts_20240722::internal_any_invocable::CoreImpl", ptr %3, i32 0, i32 0
  %7 = getelementptr inbounds nuw %"class.absl::lts_20240722::internal_any_invocable::CoreImpl", ptr %3, i32 0, i32 0
  call void %5(i1 noundef zeroext true, ptr noundef %6, ptr noundef %7) #3
  ret void
}

; Function Attrs: mustprogress uwtable
define internal void @"_ZN4absl12lts_2024072212AnyInvocableIFvvEEC2IZN17grpc_event_engine12experimental18ThreadyEventEngine8RunAfterENSt6chrono8durationIlSt5ratioILl1ELl1000000000EEEEPNS6_11EventEngine7ClosureEE3$_0vEEOT_"(ptr noundef nonnull align 16 dereferenceable(32) %0, ptr noundef nonnull align 8 dereferenceable(8) %1) unnamed_addr #4 align 2 {
  %3 = alloca ptr, align 8
  %4 = alloca ptr, align 8
  store ptr %0, ptr %3, align 8, !tbaa !8
  store ptr %1, ptr %4, align 8, !tbaa !68
  %5 = load ptr, ptr %3, align 8
  %6 = load ptr, ptr %4, align 8, !tbaa !68
  call void @"_ZN4absl12lts_2024072222internal_any_invocable4ImplIFvvEEC2IZN17grpc_event_engine12experimental18ThreadyEventEngine8RunAfterENSt6chrono8durationIlSt5ratioILl1ELl1000000000EEEEPNS7_11EventEngine7ClosureEE3$_0EENS1_19ConversionConstructEOT_"(ptr noundef nonnull align 16 dereferenceable(32) %5, ptr noundef nonnull align 8 dereferenceable(8) %6)
  ret void
}

; Function Attrs: mustprogress uwtable
define { i64, i64 } @_ZN17grpc_event_engine12experimental18ThreadyEventEngine8RunAfterENSt6chrono8durationIlSt5ratioILl1ELl1000000000EEEEPNS0_11EventEngine7ClosureE(ptr noundef nonnull align 8 dereferenceable(40) %0, i64 %1, ptr noundef %2) unnamed_addr #4 align 2 personality ptr @__gxx_personality_v0 {
  %4 = alloca %"struct.grpc_event_engine::experimental::EventEngine::TaskHandle", align 8
  %5 = alloca %"class.std::chrono::duration", align 8
  %6 = alloca ptr, align 8
  %7 = alloca ptr, align 8
  %8 = alloca %"class.std::chrono::duration", align 8
  %9 = alloca %"class.absl::lts_20240722::AnyInvocable", align 16
  %10 = alloca %class.anon.60, align 8
  %11 = alloca ptr, align 8
  %12 = alloca i32, align 4
  %13 = getelementptr inbounds nuw %"class.std::chrono::duration", ptr %5, i32 0, i32 0
  store i64 %1, ptr %13, align 8
  store ptr %0, ptr %6, align 8, !tbaa !3
  store ptr %2, ptr %7, align 8, !tbaa !135
  %14 = load ptr, ptr %6, align 8
  call void @llvm.memcpy.p0.p0.i64(ptr align 8 %8, ptr align 8 %5, i64 8, i1 false), !tbaa.struct !92
  call void @llvm.lifetime.start.p0(i64 8, ptr %10) #3
  %15 = getelementptr inbounds nuw %class.anon.60, ptr %10, i32 0, i32 0
  %16 = load ptr, ptr %7, align 8, !tbaa !135
  store ptr %16, ptr %15, align 8, !tbaa !139
  call void @"_ZN4absl12lts_2024072212AnyInvocableIFvvEEC2IZN17grpc_event_engine12experimental18ThreadyEventEngine8RunAfterENSt6chrono8durationIlSt5ratioILl1ELl1000000000EEEEPNS6_11EventEngine7ClosureEE3$_0vEEOT_"(ptr noundef nonnull align 16 dereferenceable(32) %9, ptr noundef nonnull align 8 dereferenceable(8) %10)
  %17 = getelementptr inbounds nuw %"class.std::chrono::duration", ptr %8, i32 0, i32 0
  %18 = load i64, ptr %17, align 8
  %19 = invoke { i64, i64 } @_ZN17grpc_event_engine12experimental18ThreadyEventEngine8RunAfterENSt6chrono8durationIlSt5ratioILl1ELl1000000000EEEEN4absl12lts_2024072212AnyInvocableIFvvEEE(ptr noundef nonnull align 8 dereferenceable(40) %14, i64 %18, ptr noundef %9)
          to label %20 unwind label %28

20:                                               ; preds = %3
  %21 = getelementptr inbounds nuw %"struct.grpc_event_engine::experimental::EventEngine::TaskHandle", ptr %4, i32 0, i32 0
  %22 = getelementptr inbounds nuw { i64, i64 }, ptr %21, i32 0, i32 0
  %23 = extractvalue { i64, i64 } %19, 0
  store i64 %23, ptr %22, align 8
  %24 = getelementptr inbounds nuw { i64, i64 }, ptr %21, i32 0, i32 1
  %25 = extractvalue { i64, i64 } %19, 1
  store i64 %25, ptr %24, align 8
  call void @_ZN4absl12lts_2024072222internal_any_invocable8CoreImplILb0EvJEED2Ev(ptr noundef nonnull align 16 dereferenceable(32) %9) #3
  call void @llvm.lifetime.end.p0(i64 8, ptr %10) #3
  %26 = getelementptr inbounds nuw %"struct.grpc_event_engine::experimental::EventEngine::TaskHandle", ptr %4, i32 0, i32 0
  %27 = load { i64, i64 }, ptr %26, align 8
  ret { i64, i64 } %27

28:                                               ; preds = %3
  %29 = landingpad { ptr, i32 }
          cleanup
  %30 = extractvalue { ptr, i32 } %29, 0
  store ptr %30, ptr %11, align 8
  %31 = extractvalue { ptr, i32 } %29, 1
  store i32 %31, ptr %12, align 4
  call void @_ZN4absl12lts_2024072222internal_any_invocable8CoreImplILb0EvJEED2Ev(ptr noundef nonnull align 16 dereferenceable(32) %9) #3
  call void @llvm.lifetime.end.p0(i64 8, ptr %10) #3
  br label %32

32:                                               ; preds = %28
  %33 = load ptr, ptr %11, align 8
  %34 = load i32, ptr %12, align 4
  %35 = insertvalue { ptr, i32 } poison, ptr %33, 0
  %36 = insertvalue { ptr, i32 } %35, i32 %34, 1
  resume { ptr, i32 } %36
}