; Function Attrs: mustprogress uwtable
define { i64, i64 } @_ZN17grpc_event_engine12experimental18ThreadyEventEngine8RunAfterENSt6chrono8durationIlSt5ratioILl1ELl1000000000EEEEPNS0_11EventEngine7ClosureE(ptr noundef nonnull align 8 dereferenceable(40) %0, i64 %1, ptr noundef %2) unnamed_addr #3 align 2 personality ptr @__gxx_personality_v0 {
  %4 = alloca %"class.absl::lts_20240722::AnyInvocable", align 16
  %5 = ptrtoint ptr %2 to i64
  store i64 %5, ptr %4, align 16, !tbaa !102
  %6 = getelementptr inbounds nuw i8, ptr %4, i64 24
  store ptr @"_ZN4absl12lts_2024072222internal_any_invocable12LocalInvokerILb0EvRZN17grpc_event_engine12experimental18ThreadyEventEngine8RunAfterENSt6chrono8durationIlSt5ratioILl1ELl1000000000EEEEPNS4_11EventEngine7ClosureEE3$_0JEEET0_PNS1_15TypeErasedStateEDpNS1_18ForwardedParameterIT2_E4typeE", ptr %6, align 8, !tbaa !8
  %7 = getelementptr inbounds nuw i8, ptr %4, i64 16
  store ptr @_ZN4absl12lts_2024072222internal_any_invocable19LocalManagerTrivialENS1_14FunctionToCallEPNS1_15TypeErasedStateES4_, ptr %7, align 16, !tbaa !3
  %8 = invoke { i64, i64 } @_ZN17grpc_event_engine12experimental18ThreadyEventEngine8RunAfterENSt6chrono8durationIlSt5ratioILl1ELl1000000000EEEEN4absl12lts_2024072212AnyInvocableIFvvEEE(ptr noundef nonnull align 8 dereferenceable(40) %0, i64 %1, ptr noundef nonnull %4)
          to label %9 unwind label %11

9:                                                ; preds = %3
  %10 = load ptr, ptr %7, align 16, !tbaa !3
  call void %10(i1 noundef zeroext true, ptr noundef nonnull align 16 dereferenceable(32) %4, ptr noundef nonnull align 16 dereferenceable(32) %4) #26
  ret { i64, i64 } %8

11:                                               ; preds = %3
  %12 = landingpad { ptr, i32 }
          cleanup
  %13 = load ptr, ptr %7, align 16, !tbaa !3
  call void %13(i1 noundef zeroext true, ptr noundef nonnull align 16 dereferenceable(32) %4, ptr noundef nonnull align 16 dereferenceable(32) %4) #26
  resume { ptr, i32 } %12
}